---
triple:          'arm64-apple-darwin'
binary-path:     '/Users/kidae/Documents/baekjoon/helloworld'
relocations:
  - { offsetInCU: 0x3F, offset: 0x3F, size: 0x8, addend: 0x0, symName: _map, symObjAddr: 0x35E54, symBinAddr: 0x10000C020, symSize: 0x0 }
  - { offsetInCU: 0x76, offset: 0x76, size: 0x8, addend: 0x0, symName: _visited, symObjAddr: 0x12B038, symBinAddr: 0x100101204, symSize: 0x0 }
  - { offsetInCU: 0xA6, offset: 0xA6, size: 0x8, addend: 0x0, symName: _flag, symObjAddr: 0x1684B1, symBinAddr: 0x10013E67D, symSize: 0x0 }
  - { offsetInCU: 0xBB, offset: 0xBB, size: 0x8, addend: 0x0, symName: _dx, symObjAddr: 0x5E3C, symBinAddr: 0x10000C000, symSize: 0x0 }
  - { offsetInCU: 0xDC, offset: 0xDC, size: 0x8, addend: 0x0, symName: _dy, symObjAddr: 0x5E4C, symBinAddr: 0x10000C010, symSize: 0x0 }
  - { offsetInCU: 0xF1, offset: 0xF1, size: 0x8, addend: 0x0, symName: _N, symObjAddr: 0x1684B4, symBinAddr: 0x10013E680, symSize: 0x0 }
  - { offsetInCU: 0x106, offset: 0x106, size: 0x8, addend: 0x0, symName: _M, symObjAddr: 0x1684B8, symBinAddr: 0x10013E684, symSize: 0x0 }
  - { offsetInCU: 0x11B, offset: 0x11B, size: 0x8, addend: 0x0, symName: _result, symObjAddr: 0x1684BC, symBinAddr: 0x10013E688, symSize: 0x0 }
  - { offsetInCU: 0x4993, offset: 0x4993, size: 0x8, addend: 0x0, symName: __ZNSt3__124__put_character_sequenceB7v160006IcNS_11char_traitsIcEEEERNS_13basic_ostreamIT_T0_EES7_PKS4_m, symObjAddr: 0x5100, symBinAddr: 0x100006D2C, symSize: 0x1EC }
  - { offsetInCU: 0x7395, offset: 0x7395, size: 0x8, addend: 0x0, symName: __ZNSt3__13getB7v160006ILm1EJiiiEEERNS_13tuple_elementIXT_ENS_5tupleIJDpT0_EEEE4typeERS5_, symObjAddr: 0x4C4, symBinAddr: 0x1000020F0, symSize: 0x28 }
  - { offsetInCU: 0x73E2, offset: 0x73E2, size: 0x8, addend: 0x0, symName: __ZNSt3__13getB7v160006ILm0EJiiiEEERNS_13tuple_elementIXT_ENS_5tupleIJDpT0_EEEE4typeERS5_, symObjAddr: 0x544, symBinAddr: 0x100002170, symSize: 0x24 }
  - { offsetInCU: 0x742F, offset: 0x742F, size: 0x8, addend: 0x0, symName: __ZNSt3__13getB7v160006ILm2EJiiiEEERNS_13tuple_elementIXT_ENS_5tupleIJDpT0_EEEE4typeERS5_, symObjAddr: 0x568, symBinAddr: 0x100002194, symSize: 0x28 }
  - { offsetInCU: 0x7487, offset: 0x7487, size: 0x8, addend: 0x0, symName: __ZNSt3__13minB7v160006IiEERKT_S3_S3_, symObjAddr: 0xAD0, symBinAddr: 0x1000026FC, symSize: 0x2C }
  - { offsetInCU: 0x74CA, offset: 0x74CA, size: 0x8, addend: 0x0, symName: __ZNSt3__13maxB7v160006IiEERKT_S3_S3_, symObjAddr: 0xAFC, symBinAddr: 0x100002728, symSize: 0x2C }
  - { offsetInCU: 0x750D, offset: 0x750D, size: 0x8, addend: 0x0, symName: __ZNSt3__1lsB7v160006INS_11char_traitsIcEEEERNS_13basic_ostreamIcT_EES6_PKc, symObjAddr: 0xB28, symBinAddr: 0x100002754, symSize: 0x48 }
  - { offsetInCU: 0x758C, offset: 0x758C, size: 0x8, addend: 0x0, symName: __ZNSt3__13minB7v160006IiNS_6__lessIiiEEEERKT_S5_S5_T0_, symObjAddr: 0xF30, symBinAddr: 0x100002B5C, symSize: 0x54 }
  - { offsetInCU: 0x7621, offset: 0x7621, size: 0x8, addend: 0x0, symName: __ZNSt3__13maxB7v160006IiNS_6__lessIiiEEEERKT_S5_S5_T0_, symObjAddr: 0xFB8, symBinAddr: 0x100002BE4, symSize: 0x54 }
  - { offsetInCU: 0x767B, offset: 0x767B, size: 0x8, addend: 0x0, symName: __ZNSt3__1neB7v160006ERKNS_16__deque_iteratorINS_5tupleIJiiiEEEPS2_RS2_PS3_lLl341EEES8_, symObjAddr: 0x174C, symBinAddr: 0x100003378, symSize: 0x34 }
  - { offsetInCU: 0x76B8, offset: 0x76B8, size: 0x8, addend: 0x0, symName: __ZNSt3__1eqB7v160006ERKNS_16__deque_iteratorINS_5tupleIJiiiEEEPS2_RS2_PS3_lLl341EEES8_, symObjAddr: 0x19E0, symBinAddr: 0x10000360C, symSize: 0x30 }
  - { offsetInCU: 0x76F5, offset: 0x76F5, size: 0x8, addend: 0x0, symName: __ZNSt3__119__libcpp_deallocateB7v160006EPvmm, symObjAddr: 0x1AEC, symBinAddr: 0x100003718, symSize: 0x30 }
  - { offsetInCU: 0x773D, offset: 0x773D, size: 0x8, addend: 0x0, symName: __ZNSt3__127__do_deallocate_handle_sizeB7v160006IJEEEvPvmDpT_, symObjAddr: 0x1B1C, symBinAddr: 0x100003748, symSize: 0x28 }
  - { offsetInCU: 0x777B, offset: 0x777B, size: 0x8, addend: 0x0, symName: __ZNSt3__124__libcpp_operator_deleteB7v160006IJPvEEEvDpT_, symObjAddr: 0x1B44, symBinAddr: 0x100003770, symSize: 0x24 }
  - { offsetInCU: 0x77B0, offset: 0x77B0, size: 0x8, addend: 0x0, symName: __ZNSt3__112__to_addressB7v160006IPNS_5tupleIJiiiEEEEEPT_S5_, symObjAddr: 0x1DC8, symBinAddr: 0x1000039F4, symSize: 0x14 }
  - { offsetInCU: 0x77E5, offset: 0x77E5, size: 0x8, addend: 0x0, symName: __ZNSt3__13maxB7v160006ImEERKT_S3_S3_, symObjAddr: 0x2B18, symBinAddr: 0x100004744, symSize: 0x2C }
  - { offsetInCU: 0x7C81, offset: 0x7C81, size: 0x8, addend: 0x0, symName: __ZNSt3__14swapB7v160006IPPNS_5tupleIJiiiEEEEENS_9enable_ifIXaasr21is_move_constructibleIT_EE5valuesr18is_move_assignableIS6_EE5valueEvE4typeERS6_S9_, symObjAddr: 0x312C, symBinAddr: 0x100004D58, symSize: 0x3C }
  - { offsetInCU: 0x7CD2, offset: 0x7CD2, size: 0x8, addend: 0x0, symName: __ZNSt3__113move_backwardB7v160006IPPNS_5tupleIJiiiEEES4_EET0_T_S6_S5_, symObjAddr: 0x3274, symBinAddr: 0x100004EA0, symSize: 0x40 }
  - { offsetInCU: 0x7D48, offset: 0x7D48, size: 0x8, addend: 0x0, symName: __ZNSt3__115__move_backwardB7v160006INS_17_ClassicAlgPolicyEPPNS_5tupleIJiiiEEES5_S5_EENS_4pairIT0_T2_EES7_T1_S8_, symObjAddr: 0x3418, symBinAddr: 0x100005044, symSize: 0x44 }
  - { offsetInCU: 0x7DB4, offset: 0x7DB4, size: 0x8, addend: 0x0, symName: __ZNSt3__123__dispatch_copy_or_moveB7v160006INS_17_ClassicAlgPolicyENS_20__move_backward_loopIS1_EENS_23__move_backward_trivialEPPNS_5tupleIJiiiEEES8_S8_EENS_4pairIT2_T4_EESA_T3_SB_, symObjAddr: 0x345C, symBinAddr: 0x100005088, symSize: 0x44 }
  - { offsetInCU: 0x7E32, offset: 0x7E32, size: 0x8, addend: 0x0, symName: __ZNSt3__121__unwrap_and_dispatchB7v160006INS_10__overloadINS_20__move_backward_loopINS_17_ClassicAlgPolicyEEENS_23__move_backward_trivialEEEPPNS_5tupleIJiiiEEESA_SA_Li0EEENS_4pairIT0_T2_EESC_T1_SD_, symObjAddr: 0x34A0, symBinAddr: 0x1000050CC, symSize: 0xB4 }
  - { offsetInCU: 0x7EC0, offset: 0x7EC0, size: 0x8, addend: 0x0, symName: __ZNSt3__114__unwrap_rangeB7v160006IPPNS_5tupleIJiiiEEES4_EENS_4pairIT0_S6_EET_S8_, symObjAddr: 0x3554, symBinAddr: 0x100005180, symSize: 0x60 }
  - { offsetInCU: 0x8084, offset: 0x8084, size: 0x8, addend: 0x0, symName: __ZNSt3__113__unwrap_iterB7v160006IPPNS_5tupleIJiiiEEENS_18__unwrap_iter_implIS4_Lb1EEELi0EEEDTclsrT0_8__unwrapclsr3stdE7declvalIT_EEEES8_, symObjAddr: 0x35FC, symBinAddr: 0x100005228, symSize: 0x24 }
  - { offsetInCU: 0x80C8, offset: 0x80C8, size: 0x8, addend: 0x0, symName: __ZNSt3__19make_pairB7v160006IPPNS_5tupleIJiiiEEES4_EENS_4pairINS_18__unwrap_ref_decayIT_E4typeENS6_IT0_E4typeEEEOS7_OSA_, symObjAddr: 0x3620, symBinAddr: 0x10000524C, symSize: 0x38 }
  - { offsetInCU: 0x8117, offset: 0x8117, size: 0x8, addend: 0x0, symName: __ZNSt3__114__rewrap_rangeB7v160006IPPNS_5tupleIJiiiEEES4_EET_S5_T0_, symObjAddr: 0x3658, symBinAddr: 0x100005284, symSize: 0x2C }
  - { offsetInCU: 0x8163, offset: 0x8163, size: 0x8, addend: 0x0, symName: __ZNSt3__113__rewrap_iterB7v160006IPPNS_5tupleIJiiiEEES4_NS_18__unwrap_iter_implIS4_Lb1EEEEET_S7_T0_, symObjAddr: 0x3684, symBinAddr: 0x1000052B0, symSize: 0x3C }
  - { offsetInCU: 0x81B8, offset: 0x81B8, size: 0x8, addend: 0x0, symName: __ZNSt3__128__copy_backward_trivial_implB7v160006IPNS_5tupleIJiiiEEES3_EENS_4pairIPT_PT0_EES6_S6_S8_, symObjAddr: 0x36C0, symBinAddr: 0x1000052EC, symSize: 0x94 }
  - { offsetInCU: 0x8220, offset: 0x8220, size: 0x8, addend: 0x0, symName: __ZNSt3__19make_pairB7v160006IRPPNS_5tupleIJiiiEEES5_EENS_4pairINS_18__unwrap_ref_decayIT_E4typeENS7_IT0_E4typeEEEOS8_OSB_, symObjAddr: 0x3754, symBinAddr: 0x100005380, symSize: 0x38 }
  - { offsetInCU: 0x82C2, offset: 0x82C2, size: 0x8, addend: 0x0, symName: __ZNSt3__18distanceB7v160006INS_13move_iteratorIPPNS_5tupleIJiiiEEEEEEENS_15iterator_traitsIT_E15difference_typeES8_S8_, symObjAddr: 0x38E0, symBinAddr: 0x10000550C, symSize: 0x3C }
  - { offsetInCU: 0x8305, offset: 0x8305, size: 0x8, addend: 0x0, symName: __ZNSt3__110__distanceB7v160006INS_13move_iteratorIPPNS_5tupleIJiiiEEEEEEENS_15iterator_traitsIT_E15difference_typeES8_S8_NS_26random_access_iterator_tagE, symObjAddr: 0x3A18, symBinAddr: 0x100005644, symSize: 0x30 }
  - { offsetInCU: 0x8352, offset: 0x8352, size: 0x8, addend: 0x0, symName: __ZNSt3__1miB7v160006IPPNS_5tupleIJiiiEEES4_EEDTmicldtfp_4baseEcldtfp0_4baseEERKNS_13move_iteratorIT_EERKNS6_IT0_EE, symObjAddr: 0x3A48, symBinAddr: 0x100005674, symSize: 0x48 }
  - { offsetInCU: 0x83A1, offset: 0x83A1, size: 0x8, addend: 0x0, symName: __ZNSt3__117__libcpp_allocateB7v160006Emm, symObjAddr: 0x3C70, symBinAddr: 0x10000589C, symSize: 0x28 }
  - { offsetInCU: 0x83DE, offset: 0x83DE, size: 0x8, addend: 0x0, symName: __ZNSt3__121__libcpp_operator_newB7v160006IJmEEEPvDpT_, symObjAddr: 0x3CB0, symBinAddr: 0x1000058DC, symSize: 0x24 }
  - { offsetInCU: 0x8417, offset: 0x8417, size: 0x8, addend: 0x0, symName: __ZNSt3__14moveB7v160006IPPNS_5tupleIJiiiEEES4_EET0_T_S6_S5_, symObjAddr: 0x3CD4, symBinAddr: 0x100005900, symSize: 0x40 }
  - { offsetInCU: 0x8471, offset: 0x8471, size: 0x8, addend: 0x0, symName: __ZNSt3__16__moveB7v160006INS_17_ClassicAlgPolicyEPPNS_5tupleIJiiiEEES5_S5_EENS_4pairIT0_T2_EES7_T1_S8_, symObjAddr: 0x3D14, symBinAddr: 0x100005940, symSize: 0x44 }
  - { offsetInCU: 0x84DD, offset: 0x84DD, size: 0x8, addend: 0x0, symName: __ZNSt3__123__dispatch_copy_or_moveB7v160006INS_17_ClassicAlgPolicyENS_11__move_loopIS1_EENS_14__move_trivialEPPNS_5tupleIJiiiEEES8_S8_EENS_4pairIT2_T4_EESA_T3_SB_, symObjAddr: 0x3D58, symBinAddr: 0x100005984, symSize: 0x44 }
  - { offsetInCU: 0x855B, offset: 0x855B, size: 0x8, addend: 0x0, symName: __ZNSt3__121__unwrap_and_dispatchB7v160006INS_10__overloadINS_11__move_loopINS_17_ClassicAlgPolicyEEENS_14__move_trivialEEEPPNS_5tupleIJiiiEEESA_SA_Li0EEENS_4pairIT0_T2_EESC_T1_SD_, symObjAddr: 0x3D9C, symBinAddr: 0x1000059C8, symSize: 0xB4 }
  - { offsetInCU: 0x862F, offset: 0x862F, size: 0x8, addend: 0x0, symName: __ZNSt3__119__copy_trivial_implB7v160006IPNS_5tupleIJiiiEEES3_EENS_4pairIPT_PT0_EES6_S6_S8_, symObjAddr: 0x3E98, symBinAddr: 0x100005AC4, symSize: 0x84 }
  - { offsetInCU: 0x8697, offset: 0x8697, size: 0x8, addend: 0x0, symName: __ZNSt3__19make_pairB7v160006IRPPNS_5tupleIJiiiEEES4_EENS_4pairINS_18__unwrap_ref_decayIT_E4typeENS7_IT0_E4typeEEEOS8_OSB_, symObjAddr: 0x3F1C, symBinAddr: 0x100005B48, symSize: 0x38 }
  - { offsetInCU: 0x86E6, offset: 0x86E6, size: 0x8, addend: 0x0, symName: __ZNSt3__13maxB7v160006ImNS_6__lessImmEEEERKT_S5_S5_T0_, symObjAddr: 0x3FC4, symBinAddr: 0x100005BF0, symSize: 0x54 }
  - { offsetInCU: 0x877B, offset: 0x877B, size: 0x8, addend: 0x0, symName: __ZNSt3__119__allocate_at_leastB7v160006INS_9allocatorIPNS_5tupleIJiiiEEEEEEENS_19__allocation_resultINS_16allocator_traitsIT_E7pointerEEERS8_m, symObjAddr: 0x415C, symBinAddr: 0x100005D88, symSize: 0x40 }
  - { offsetInCU: 0x87BE, offset: 0x87BE, size: 0x8, addend: 0x0, symName: __ZNSt3__112__to_addressB7v160006INS_5tupleIJiiiEEEEEPT_S4_, symObjAddr: 0x47D4, symBinAddr: 0x100006400, symSize: 0x14 }
  - { offsetInCU: 0x87F3, offset: 0x87F3, size: 0x8, addend: 0x0, symName: __ZNSt3__116__pad_and_outputB7v160006IcNS_11char_traitsIcEEEENS_19ostreambuf_iteratorIT_T0_EES6_PKS4_S8_S8_RNS_8ios_baseES4_, symObjAddr: 0x533C, symBinAddr: 0x100006F68, symSize: 0x240 }
  - { offsetInCU: 0x88C2, offset: 0x88C2, size: 0x8, addend: 0x0, symName: __ZNSt3__119__debug_db_insert_cB7v160006INS_12basic_stringIcNS_11char_traitsIcEENS_9allocatorIcEEEEEEvPT_, symObjAddr: 0x57F0, symBinAddr: 0x10000741C, symSize: 0x10 }
  - { offsetInCU: 0x88F3, offset: 0x88F3, size: 0x8, addend: 0x0, symName: __ZNSt3__112__to_addressB7v160006IKcEEPT_S3_, symObjAddr: 0x58BC, symBinAddr: 0x1000074E8, symSize: 0x14 }
  - { offsetInCU: 0x895B, offset: 0x895B, size: 0x8, addend: 0x0, symName: __ZNSt3__19use_facetB7v160006INS_5ctypeIcEEEERKT_RKNS_6localeE, symObjAddr: 0x5B3C, symBinAddr: 0x100007768, symSize: 0x2C }
  - { offsetInCU: 0x8E2A, offset: 0x8E2A, size: 0x8, addend: 0x0, symName: __ZNSt3__118__constexpr_strlenB7v160006EPKc, symObjAddr: 0x5BD4, symBinAddr: 0x100007800, symSize: 0x24 }
  - { offsetInCU: 0x9002, offset: 0x9002, size: 0x8, addend: 0x0, symName: __ZSt28__throw_bad_array_new_lengthB7v160006v, symObjAddr: 0x3C3C, symBinAddr: 0x100005868, symSize: 0x34 }
  - { offsetInCU: 0xB803, offset: 0xB803, size: 0x8, addend: 0x0, symName: __Z7IsValidii, symObjAddr: 0x0, symBinAddr: 0x100001C2C, symSize: 0xBC }
  - { offsetInCU: 0xB83E, offset: 0xB83E, size: 0x8, addend: 0x0, symName: __Z3Bfsv, symObjAddr: 0xBC, symBinAddr: 0x100001CE8, symSize: 0x2B8 }
  - { offsetInCU: 0xB8E5, offset: 0xB8E5, size: 0x8, addend: 0x0, symName: __ZNSt3__15dequeINS_5tupleIJiiiEEENS_9allocatorIS2_EEEC1B7v160006Ev, symObjAddr: 0x374, symBinAddr: 0x100001FA0, symSize: 0x2C }
  - { offsetInCU: 0xB90F, offset: 0xB90F, size: 0x8, addend: 0x0, symName: __ZNSt3__15dequeINS_5tupleIJiiiEEENS_9allocatorIS2_EEE10push_frontEOS2_, symObjAddr: 0x3A0, symBinAddr: 0x100001FCC, symSize: 0xB0 }
  - { offsetInCU: 0xB95A, offset: 0xB95A, size: 0x8, addend: 0x0, symName: __ZNSt3__15tupleIJiiiEEC1B7v160006IJiiiELi0EEEDpOT_, symObjAddr: 0x450, symBinAddr: 0x10000207C, symSize: 0x44 }
  - { offsetInCU: 0xB9CC, offset: 0xB9CC, size: 0x8, addend: 0x0, symName: __ZNKSt3__15dequeINS_5tupleIJiiiEEENS_9allocatorIS2_EEE5emptyB7v160006Ev, symObjAddr: 0x494, symBinAddr: 0x1000020C0, symSize: 0x30 }
  - { offsetInCU: 0xB9F2, offset: 0xB9F2, size: 0x8, addend: 0x0, symName: __ZNSt3__15dequeINS_5tupleIJiiiEEENS_9allocatorIS2_EEE5frontEv, symObjAddr: 0x4EC, symBinAddr: 0x100002118, symSize: 0x58 }
  - { offsetInCU: 0xBA1A, offset: 0xBA1A, size: 0x8, addend: 0x0, symName: __ZNSt3__15dequeINS_5tupleIJiiiEEENS_9allocatorIS2_EEE9pop_frontEv, symObjAddr: 0x590, symBinAddr: 0x1000021BC, symSize: 0xB4 }
  - { offsetInCU: 0xBA51, offset: 0xBA51, size: 0x8, addend: 0x0, symName: __ZNSt3__15dequeINS_5tupleIJiiiEEENS_9allocatorIS2_EEE9push_backEOS2_, symObjAddr: 0x644, symBinAddr: 0x100002270, symSize: 0xA0 }
  - { offsetInCU: 0xBA97, offset: 0xBA97, size: 0x8, addend: 0x0, symName: __ZNSt3__15tupleIJiiiEEC1B7v160006IJRiS3_iELi0EEEDpOT_, symObjAddr: 0x6E4, symBinAddr: 0x100002310, symSize: 0x44 }
  - { offsetInCU: 0xBB09, offset: 0xBB09, size: 0x8, addend: 0x0, symName: __ZNSt3__15tupleIJiiiEEC1B7v160006IJRiS3_S3_ELi0EEEDpOT_, symObjAddr: 0x728, symBinAddr: 0x100002354, symSize: 0x44 }
  - { offsetInCU: 0xBB7B, offset: 0xBB7B, size: 0x8, addend: 0x0, symName: __ZNSt3__15dequeINS_5tupleIJiiiEEENS_9allocatorIS2_EEED1B7v160006Ev, symObjAddr: 0x76C, symBinAddr: 0x100002398, symSize: 0x2C }
  - { offsetInCU: 0xBBA5, offset: 0xBBA5, size: 0x8, addend: 0x0, symName: _main, symObjAddr: 0x798, symBinAddr: 0x1000023C4, symSize: 0x30C }
  - { offsetInCU: 0xBCA6, offset: 0xBCA6, size: 0x8, addend: 0x0, symName: __ZNSt3__19basic_iosIcNS_11char_traitsIcEEE3tieB7v160006EPNS_13basic_ostreamIcS2_EE, symObjAddr: 0xAA4, symBinAddr: 0x1000026D0, symSize: 0x2C }
  - { offsetInCU: 0xBCEC, offset: 0xBCEC, size: 0x8, addend: 0x0, symName: __ZNSt3__15tupleIJiiiEEC2B7v160006IJiiiELi0EEEDpOT_, symObjAddr: 0xB70, symBinAddr: 0x10000279C, symSize: 0x44 }
  - { offsetInCU: 0xBD5E, offset: 0xBD5E, size: 0x8, addend: 0x0, symName: __ZNSt3__112__tuple_implINS_15__tuple_indicesIJLm0ELm1ELm2EEEEJiiiEEC1B7v160006IJLm0ELm1ELm2EEJiiiEJEJEJiiiEEENS1_IJXspT_EEEENS_13__tuple_typesIJDpT0_EEENS1_IJXspT1_EEEENS6_IJDpT2_EEEDpOT3_, symObjAddr: 0xBB4, symBinAddr: 0x1000027E0, symSize: 0x44 }
  - { offsetInCU: 0xBE31, offset: 0xBE31, size: 0x8, addend: 0x0, symName: __ZNSt3__112__tuple_implINS_15__tuple_indicesIJLm0ELm1ELm2EEEEJiiiEEC2B7v160006IJLm0ELm1ELm2EEJiiiEJEJEJiiiEEENS1_IJXspT_EEEENS_13__tuple_typesIJDpT0_EEENS1_IJXspT1_EEEENS6_IJDpT2_EEEDpOT3_, symObjAddr: 0xBF8, symBinAddr: 0x100002824, symSize: 0x5C }
  - { offsetInCU: 0xBF04, offset: 0xBF04, size: 0x8, addend: 0x0, symName: __ZNSt3__112__tuple_leafILm0EiLb0EEC2B7v160006IivEEOT_, symObjAddr: 0xC54, symBinAddr: 0x100002880, symSize: 0x24 }
  - { offsetInCU: 0xBF47, offset: 0xBF47, size: 0x8, addend: 0x0, symName: __ZNSt3__112__tuple_leafILm1EiLb0EEC2B7v160006IivEEOT_, symObjAddr: 0xC78, symBinAddr: 0x1000028A4, symSize: 0x24 }
  - { offsetInCU: 0xBF8A, offset: 0xBF8A, size: 0x8, addend: 0x0, symName: __ZNSt3__112__tuple_leafILm2EiLb0EEC2B7v160006IivEEOT_, symObjAddr: 0xC9C, symBinAddr: 0x1000028C8, symSize: 0x24 }
  - { offsetInCU: 0xBFCD, offset: 0xBFCD, size: 0x8, addend: 0x0, symName: __ZNSt3__112__tuple_leafILm1EiLb0EE3getB7v160006Ev, symObjAddr: 0xCC0, symBinAddr: 0x1000028EC, symSize: 0x14 }
  - { offsetInCU: 0xBFF3, offset: 0xBFF3, size: 0x8, addend: 0x0, symName: __ZNSt3__112__tuple_leafILm0EiLb0EE3getB7v160006Ev, symObjAddr: 0xCD4, symBinAddr: 0x100002900, symSize: 0x14 }
  - { offsetInCU: 0xC019, offset: 0xC019, size: 0x8, addend: 0x0, symName: __ZNSt3__112__tuple_leafILm2EiLb0EE3getB7v160006Ev, symObjAddr: 0xCE8, symBinAddr: 0x100002914, symSize: 0x14 }
  - { offsetInCU: 0xC03F, offset: 0xC03F, size: 0x8, addend: 0x0, symName: __ZNSt3__15tupleIJiiiEEC2B7v160006IJRiS3_iELi0EEEDpOT_, symObjAddr: 0xCFC, symBinAddr: 0x100002928, symSize: 0x44 }
  - { offsetInCU: 0xC0B1, offset: 0xC0B1, size: 0x8, addend: 0x0, symName: __ZNSt3__112__tuple_implINS_15__tuple_indicesIJLm0ELm1ELm2EEEEJiiiEEC1B7v160006IJLm0ELm1ELm2EEJiiiEJEJEJRiS5_iEEENS1_IJXspT_EEEENS_13__tuple_typesIJDpT0_EEENS1_IJXspT1_EEEENS7_IJDpT2_EEEDpOT3_, symObjAddr: 0xD40, symBinAddr: 0x10000296C, symSize: 0x44 }
  - { offsetInCU: 0xC184, offset: 0xC184, size: 0x8, addend: 0x0, symName: __ZNSt3__112__tuple_implINS_15__tuple_indicesIJLm0ELm1ELm2EEEEJiiiEEC2B7v160006IJLm0ELm1ELm2EEJiiiEJEJEJRiS5_iEEENS1_IJXspT_EEEENS_13__tuple_typesIJDpT0_EEENS1_IJXspT1_EEEENS7_IJDpT2_EEEDpOT3_, symObjAddr: 0xD84, symBinAddr: 0x1000029B0, symSize: 0x5C }
  - { offsetInCU: 0xC257, offset: 0xC257, size: 0x8, addend: 0x0, symName: __ZNSt3__112__tuple_leafILm0EiLb0EEC2B7v160006IRivEEOT_, symObjAddr: 0xDE0, symBinAddr: 0x100002A0C, symSize: 0x24 }
  - { offsetInCU: 0xC29A, offset: 0xC29A, size: 0x8, addend: 0x0, symName: __ZNSt3__112__tuple_leafILm1EiLb0EEC2B7v160006IRivEEOT_, symObjAddr: 0xE04, symBinAddr: 0x100002A30, symSize: 0x24 }
  - { offsetInCU: 0xC2DD, offset: 0xC2DD, size: 0x8, addend: 0x0, symName: __ZNSt3__15tupleIJiiiEEC2B7v160006IJRiS3_S3_ELi0EEEDpOT_, symObjAddr: 0xE28, symBinAddr: 0x100002A54, symSize: 0x44 }
  - { offsetInCU: 0xC34F, offset: 0xC34F, size: 0x8, addend: 0x0, symName: __ZNSt3__112__tuple_implINS_15__tuple_indicesIJLm0ELm1ELm2EEEEJiiiEEC1B7v160006IJLm0ELm1ELm2EEJiiiEJEJEJRiS5_S5_EEENS1_IJXspT_EEEENS_13__tuple_typesIJDpT0_EEENS1_IJXspT1_EEEENS7_IJDpT2_EEEDpOT3_, symObjAddr: 0xE6C, symBinAddr: 0x100002A98, symSize: 0x44 }
  - { offsetInCU: 0xC422, offset: 0xC422, size: 0x8, addend: 0x0, symName: __ZNSt3__112__tuple_implINS_15__tuple_indicesIJLm0ELm1ELm2EEEEJiiiEEC2B7v160006IJLm0ELm1ELm2EEJiiiEJEJEJRiS5_S5_EEENS1_IJXspT_EEEENS_13__tuple_typesIJDpT0_EEENS1_IJXspT1_EEEENS7_IJDpT2_EEEDpOT3_, symObjAddr: 0xEB0, symBinAddr: 0x100002ADC, symSize: 0x5C }
  - { offsetInCU: 0xC4F5, offset: 0xC4F5, size: 0x8, addend: 0x0, symName: __ZNSt3__112__tuple_leafILm2EiLb0EEC2B7v160006IRivEEOT_, symObjAddr: 0xF0C, symBinAddr: 0x100002B38, symSize: 0x24 }
  - { offsetInCU: 0xC542, offset: 0xC542, size: 0x8, addend: 0x0, symName: __ZNKSt3__16__lessIiiEclB7v160006ERKiS3_, symObjAddr: 0xF84, symBinAddr: 0x100002BB0, symSize: 0x34 }
  - { offsetInCU: 0xC584, offset: 0xC584, size: 0x8, addend: 0x0, symName: __ZNSt3__15dequeINS_5tupleIJiiiEEENS_9allocatorIS2_EEEC2B7v160006Ev, symObjAddr: 0x100C, symBinAddr: 0x100002C38, symSize: 0x50 }
  - { offsetInCU: 0xC5AE, offset: 0xC5AE, size: 0x8, addend: 0x0, symName: __ZNSt3__114__split_bufferIPNS_5tupleIJiiiEEENS_9allocatorIS3_EEEC1Ev, symObjAddr: 0x105C, symBinAddr: 0x100002C88, symSize: 0x2C }
  - { offsetInCU: 0xC5DF, offset: 0xC5DF, size: 0x8, addend: 0x0, symName: __ZNSt3__117__compressed_pairImNS_9allocatorINS_5tupleIJiiiEEEEEEC1B7v160006IiNS_18__default_init_tagEEEOT_OT0_, symObjAddr: 0x1088, symBinAddr: 0x100002CB4, symSize: 0x3C }
  - { offsetInCU: 0xC637, offset: 0xC637, size: 0x8, addend: 0x0, symName: __ZNSt3__114__split_bufferIPNS_5tupleIJiiiEEENS_9allocatorIS3_EEEC2Ev, symObjAddr: 0x10D0, symBinAddr: 0x100002CFC, symSize: 0x50 }
  - { offsetInCU: 0xC668, offset: 0xC668, size: 0x8, addend: 0x0, symName: __ZNSt3__117__compressed_pairIPPNS_5tupleIJiiiEEENS_9allocatorIS3_EEEC1B7v160006IDnNS_18__default_init_tagEEEOT_OT0_, symObjAddr: 0x1120, symBinAddr: 0x100002D4C, symSize: 0x3C }
  - { offsetInCU: 0xC6C0, offset: 0xC6C0, size: 0x8, addend: 0x0, symName: __ZNSt3__117__compressed_pairIPPNS_5tupleIJiiiEEENS_9allocatorIS3_EEEC2B7v160006IDnNS_18__default_init_tagEEEOT_OT0_, symObjAddr: 0x115C, symBinAddr: 0x100002D88, symSize: 0x40 }
  - { offsetInCU: 0xC718, offset: 0xC718, size: 0x8, addend: 0x0, symName: __ZNSt3__122__compressed_pair_elemIPPNS_5tupleIJiiiEEELi0ELb0EEC2B7v160006IDnvEEOT_, symObjAddr: 0x119C, symBinAddr: 0x100002DC8, symSize: 0x1C }
  - { offsetInCU: 0xC75A, offset: 0xC75A, size: 0x8, addend: 0x0, symName: __ZNSt3__122__compressed_pair_elemINS_9allocatorIPNS_5tupleIJiiiEEEEELi1ELb1EEC2B7v160006ENS_18__default_init_tagE, symObjAddr: 0x11B8, symBinAddr: 0x100002DE4, symSize: 0x2C }
  - { offsetInCU: 0xC78E, offset: 0xC78E, size: 0x8, addend: 0x0, symName: __ZNSt3__19allocatorIPNS_5tupleIJiiiEEEEC2B7v160006Ev, symObjAddr: 0x11E4, symBinAddr: 0x100002E10, symSize: 0x2C }
  - { offsetInCU: 0xC7B8, offset: 0xC7B8, size: 0x8, addend: 0x0, symName: __ZNSt3__116__non_trivial_ifILb1ENS_9allocatorIPNS_5tupleIJiiiEEEEEEC2B7v160006Ev, symObjAddr: 0x1210, symBinAddr: 0x100002E3C, symSize: 0x14 }
  - { offsetInCU: 0xC7E2, offset: 0xC7E2, size: 0x8, addend: 0x0, symName: __ZNSt3__117__compressed_pairImNS_9allocatorINS_5tupleIJiiiEEEEEEC2B7v160006IiNS_18__default_init_tagEEEOT_OT0_, symObjAddr: 0x1224, symBinAddr: 0x100002E50, symSize: 0x40 }
  - { offsetInCU: 0xC83A, offset: 0xC83A, size: 0x8, addend: 0x0, symName: __ZNSt3__122__compressed_pair_elemImLi0ELb0EEC2B7v160006IivEEOT_, symObjAddr: 0x1264, symBinAddr: 0x100002E90, symSize: 0x24 }
  - { offsetInCU: 0xC87C, offset: 0xC87C, size: 0x8, addend: 0x0, symName: __ZNSt3__122__compressed_pair_elemINS_9allocatorINS_5tupleIJiiiEEEEELi1ELb1EEC2B7v160006ENS_18__default_init_tagE, symObjAddr: 0x1288, symBinAddr: 0x100002EB4, symSize: 0x2C }
  - { offsetInCU: 0xC8B0, offset: 0xC8B0, size: 0x8, addend: 0x0, symName: __ZNSt3__19allocatorINS_5tupleIJiiiEEEEC2B7v160006Ev, symObjAddr: 0x12B4, symBinAddr: 0x100002EE0, symSize: 0x2C }
  - { offsetInCU: 0xC8DA, offset: 0xC8DA, size: 0x8, addend: 0x0, symName: __ZNSt3__116__non_trivial_ifILb1ENS_9allocatorINS_5tupleIJiiiEEEEEEC2B7v160006Ev, symObjAddr: 0x12E0, symBinAddr: 0x100002F0C, symSize: 0x14 }
  - { offsetInCU: 0xC904, offset: 0xC904, size: 0x8, addend: 0x0, symName: __ZNSt3__15dequeINS_5tupleIJiiiEEENS_9allocatorIS2_EEED2B7v160006Ev, symObjAddr: 0x12F4, symBinAddr: 0x100002F20, symSize: 0x9C }
  - { offsetInCU: 0xC95B, offset: 0xC95B, size: 0x8, addend: 0x0, symName: __ZNSt3__15dequeINS_5tupleIJiiiEEENS_9allocatorIS2_EEE5clearEv, symObjAddr: 0x1390, symBinAddr: 0x100002FBC, symSize: 0x180 }
  - { offsetInCU: 0xC9B6, offset: 0xC9B6, size: 0x8, addend: 0x0, symName: __ZNSt3__114__split_bufferIPNS_5tupleIJiiiEEENS_9allocatorIS3_EEE5beginB7v160006Ev, symObjAddr: 0x1510, symBinAddr: 0x10000313C, symSize: 0x18 }
  - { offsetInCU: 0xC9DC, offset: 0xC9DC, size: 0x8, addend: 0x0, symName: __ZNSt3__114__split_bufferIPNS_5tupleIJiiiEEENS_9allocatorIS3_EEE3endB7v160006Ev, symObjAddr: 0x1528, symBinAddr: 0x100003154, symSize: 0x18 }
  - { offsetInCU: 0xCA02, offset: 0xCA02, size: 0x8, addend: 0x0, symName: __ZNSt3__116allocator_traitsINS_9allocatorINS_5tupleIJiiiEEEEEE10deallocateB7v160006ERS4_PS3_m, symObjAddr: 0x1540, symBinAddr: 0x10000316C, symSize: 0x34 }
  - { offsetInCU: 0xCA44, offset: 0xCA44, size: 0x8, addend: 0x0, symName: __ZNSt3__15dequeINS_5tupleIJiiiEEENS_9allocatorIS2_EEE7__allocB7v160006Ev, symObjAddr: 0x1574, symBinAddr: 0x1000031A0, symSize: 0x28 }
  - { offsetInCU: 0xCA6A, offset: 0xCA6A, size: 0x8, addend: 0x0, symName: __ZNSt3__114__split_bufferIPNS_5tupleIJiiiEEENS_9allocatorIS3_EEED1Ev, symObjAddr: 0x159C, symBinAddr: 0x1000031C8, symSize: 0x2C }
  - { offsetInCU: 0xCA96, offset: 0xCA96, size: 0x8, addend: 0x0, symName: __ZNSt3__15dequeINS_5tupleIJiiiEEENS_9allocatorIS2_EEE5beginB7v160006Ev, symObjAddr: 0x15C8, symBinAddr: 0x1000031F4, symSize: 0xC0 }
  - { offsetInCU: 0xCACB, offset: 0xCACB, size: 0x8, addend: 0x0, symName: __ZNSt3__15dequeINS_5tupleIJiiiEEENS_9allocatorIS2_EEE3endB7v160006Ev, symObjAddr: 0x1688, symBinAddr: 0x1000032B4, symSize: 0xC4 }
  - { offsetInCU: 0xCB0F, offset: 0xCB0F, size: 0x8, addend: 0x0, symName: __ZNSt3__116allocator_traitsINS_9allocatorINS_5tupleIJiiiEEEEEE7destroyB7v160006IS3_vEEvRS4_PT_, symObjAddr: 0x1780, symBinAddr: 0x1000033AC, symSize: 0x2C }
  - { offsetInCU: 0xCB4C, offset: 0xCB4C, size: 0x8, addend: 0x0, symName: __ZNKSt3__116__deque_iteratorINS_5tupleIJiiiEEEPS2_RS2_PS3_lLl341EEdeB7v160006Ev, symObjAddr: 0x17AC, symBinAddr: 0x1000033D8, symSize: 0x18 }
  - { offsetInCU: 0xCB72, offset: 0xCB72, size: 0x8, addend: 0x0, symName: __ZNSt3__116__deque_iteratorINS_5tupleIJiiiEEEPS2_RS2_PS3_lLl341EEppB7v160006Ev, symObjAddr: 0x17C4, symBinAddr: 0x1000033F0, symSize: 0x70 }
  - { offsetInCU: 0xCB98, offset: 0xCB98, size: 0x8, addend: 0x0, symName: __ZNSt3__15dequeINS_5tupleIJiiiEEENS_9allocatorIS2_EEE6__sizeB7v160006Ev, symObjAddr: 0x1834, symBinAddr: 0x100003460, symSize: 0x28 }
  - { offsetInCU: 0xCBBE, offset: 0xCBBE, size: 0x8, addend: 0x0, symName: __ZNKSt3__114__split_bufferIPNS_5tupleIJiiiEEENS_9allocatorIS3_EEE4sizeB7v160006Ev, symObjAddr: 0x185C, symBinAddr: 0x100003488, symSize: 0x28 }
  - { offsetInCU: 0xCBE4, offset: 0xCBE4, size: 0x8, addend: 0x0, symName: __ZNSt3__114__split_bufferIPNS_5tupleIJiiiEEENS_9allocatorIS3_EEE5frontB7v160006Ev, symObjAddr: 0x1884, symBinAddr: 0x1000034B0, symSize: 0x18 }
  - { offsetInCU: 0xCC0A, offset: 0xCC0A, size: 0x8, addend: 0x0, symName: __ZNSt3__114__split_bufferIPNS_5tupleIJiiiEEENS_9allocatorIS3_EEE9pop_frontB7v160006Ev, symObjAddr: 0x189C, symBinAddr: 0x1000034C8, symSize: 0x2C }
  - { offsetInCU: 0xCC30, offset: 0xCC30, size: 0x8, addend: 0x0, symName: __ZNKSt3__114__split_bufferIPNS_5tupleIJiiiEEENS_9allocatorIS3_EEE5emptyB7v160006Ev, symObjAddr: 0x18C8, symBinAddr: 0x1000034F4, symSize: 0x28 }
  - { offsetInCU: 0xCC56, offset: 0xCC56, size: 0x8, addend: 0x0, symName: __ZNSt3__116__deque_iteratorINS_5tupleIJiiiEEEPS2_RS2_PS3_lLl341EEC1B7v160006ES5_S3_, symObjAddr: 0x18F0, symBinAddr: 0x10000351C, symSize: 0x3C }
  - { offsetInCU: 0xCC9E, offset: 0xCC9E, size: 0x8, addend: 0x0, symName: __ZNSt3__116__deque_iteratorINS_5tupleIJiiiEEEPS2_RS2_PS3_lLl341EEC2B7v160006ES5_S3_, symObjAddr: 0x192C, symBinAddr: 0x100003558, symSize: 0x2C }
  - { offsetInCU: 0xCCE6, offset: 0xCCE6, size: 0x8, addend: 0x0, symName: __ZNKSt3__15dequeINS_5tupleIJiiiEEENS_9allocatorIS2_EEE4sizeB7v160006Ev, symObjAddr: 0x1958, symBinAddr: 0x100003584, symSize: 0x28 }
  - { offsetInCU: 0xCD0C, offset: 0xCD0C, size: 0x8, addend: 0x0, symName: __ZNKSt3__15dequeINS_5tupleIJiiiEEENS_9allocatorIS2_EEE6__sizeB7v160006Ev, symObjAddr: 0x1980, symBinAddr: 0x1000035AC, symSize: 0x28 }
  - { offsetInCU: 0xCD32, offset: 0xCD32, size: 0x8, addend: 0x0, symName: __ZNKSt3__117__compressed_pairImNS_9allocatorINS_5tupleIJiiiEEEEEE5firstB7v160006Ev, symObjAddr: 0x19A8, symBinAddr: 0x1000035D4, symSize: 0x24 }
  - { offsetInCU: 0xCD58, offset: 0xCD58, size: 0x8, addend: 0x0, symName: __ZNKSt3__122__compressed_pair_elemImLi0ELb0EE5__getB7v160006Ev, symObjAddr: 0x19CC, symBinAddr: 0x1000035F8, symSize: 0x14 }
  - { offsetInCU: 0xCD7E, offset: 0xCD7E, size: 0x8, addend: 0x0, symName: __ZNSt3__19allocatorINS_5tupleIJiiiEEEE7destroyB7v160006EPS2_, symObjAddr: 0x1A10, symBinAddr: 0x10000363C, symSize: 0x14 }
  - { offsetInCU: 0xCDB2, offset: 0xCDB2, size: 0x8, addend: 0x0, symName: __ZNSt3__117__compressed_pairImNS_9allocatorINS_5tupleIJiiiEEEEEE5firstB7v160006Ev, symObjAddr: 0x1A24, symBinAddr: 0x100003650, symSize: 0x24 }
  - { offsetInCU: 0xCDD8, offset: 0xCDD8, size: 0x8, addend: 0x0, symName: __ZNSt3__122__compressed_pair_elemImLi0ELb0EE5__getB7v160006Ev, symObjAddr: 0x1A48, symBinAddr: 0x100003674, symSize: 0x14 }
  - { offsetInCU: 0xCDFE, offset: 0xCDFE, size: 0x8, addend: 0x0, symName: __ZNSt3__114__split_bufferIPNS_5tupleIJiiiEEENS_9allocatorIS3_EEE19__destruct_at_beginB7v160006EPS3_, symObjAddr: 0x1A5C, symBinAddr: 0x100003688, symSize: 0x2C }
  - { offsetInCU: 0xCE32, offset: 0xCE32, size: 0x8, addend: 0x0, symName: __ZNSt3__114__split_bufferIPNS_5tupleIJiiiEEENS_9allocatorIS3_EEE19__destruct_at_beginEPS3_NS_17integral_constantIbLb1EEE, symObjAddr: 0x1A88, symBinAddr: 0x1000036B4, symSize: 0x20 }
  - { offsetInCU: 0xCE72, offset: 0xCE72, size: 0x8, addend: 0x0, symName: __ZNSt3__19allocatorINS_5tupleIJiiiEEEE10deallocateB7v160006EPS2_m, symObjAddr: 0x1AA8, symBinAddr: 0x1000036D4, symSize: 0x44 }
  - { offsetInCU: 0xCEB4, offset: 0xCEB4, size: 0x8, addend: 0x0, symName: __ZNSt3__117__compressed_pairImNS_9allocatorINS_5tupleIJiiiEEEEEE6secondB7v160006Ev, symObjAddr: 0x1B68, symBinAddr: 0x100003794, symSize: 0x24 }
  - { offsetInCU: 0xCEDA, offset: 0xCEDA, size: 0x8, addend: 0x0, symName: __ZNSt3__122__compressed_pair_elemINS_9allocatorINS_5tupleIJiiiEEEEELi1ELb1EE5__getB7v160006Ev, symObjAddr: 0x1B8C, symBinAddr: 0x1000037B8, symSize: 0x14 }
  - { offsetInCU: 0xCF00, offset: 0xCF00, size: 0x8, addend: 0x0, symName: __ZNSt3__114__split_bufferIPNS_5tupleIJiiiEEENS_9allocatorIS3_EEED2Ev, symObjAddr: 0x1BA0, symBinAddr: 0x1000037CC, symSize: 0x8C }
  - { offsetInCU: 0xCF2C, offset: 0xCF2C, size: 0x8, addend: 0x0, symName: __ZNSt3__114__split_bufferIPNS_5tupleIJiiiEEENS_9allocatorIS3_EEE5clearB7v160006Ev, symObjAddr: 0x1C2C, symBinAddr: 0x100003858, symSize: 0x28 }
  - { offsetInCU: 0xCF52, offset: 0xCF52, size: 0x8, addend: 0x0, symName: __ZNSt3__116allocator_traitsINS_9allocatorIPNS_5tupleIJiiiEEEEEE10deallocateB7v160006ERS5_PS4_m, symObjAddr: 0x1C54, symBinAddr: 0x100003880, symSize: 0x34 }
  - { offsetInCU: 0xCF94, offset: 0xCF94, size: 0x8, addend: 0x0, symName: __ZNSt3__114__split_bufferIPNS_5tupleIJiiiEEENS_9allocatorIS3_EEE7__allocB7v160006Ev, symObjAddr: 0x1C88, symBinAddr: 0x1000038B4, symSize: 0x28 }
  - { offsetInCU: 0xCFBA, offset: 0xCFBA, size: 0x8, addend: 0x0, symName: __ZNKSt3__114__split_bufferIPNS_5tupleIJiiiEEENS_9allocatorIS3_EEE8capacityB7v160006Ev, symObjAddr: 0x1CB0, symBinAddr: 0x1000038DC, symSize: 0x40 }
  - { offsetInCU: 0xCFE0, offset: 0xCFE0, size: 0x8, addend: 0x0, symName: __ZNSt3__114__split_bufferIPNS_5tupleIJiiiEEENS_9allocatorIS3_EEE17__destruct_at_endB7v160006EPS3_, symObjAddr: 0x1CF0, symBinAddr: 0x10000391C, symSize: 0x2C }
  - { offsetInCU: 0xD014, offset: 0xD014, size: 0x8, addend: 0x0, symName: __ZNSt3__114__split_bufferIPNS_5tupleIJiiiEEENS_9allocatorIS3_EEE17__destruct_at_endB7v160006EPS3_NS_17integral_constantIbLb0EEE, symObjAddr: 0x1D1C, symBinAddr: 0x100003948, symSize: 0x80 }
  - { offsetInCU: 0xD054, offset: 0xD054, size: 0x8, addend: 0x0, symName: __ZNSt3__116allocator_traitsINS_9allocatorIPNS_5tupleIJiiiEEEEEE7destroyB7v160006IS4_vEEvRS5_PT_, symObjAddr: 0x1D9C, symBinAddr: 0x1000039C8, symSize: 0x2C }
  - { offsetInCU: 0xD091, offset: 0xD091, size: 0x8, addend: 0x0, symName: __ZNSt3__19allocatorIPNS_5tupleIJiiiEEEE7destroyB7v160006EPS3_, symObjAddr: 0x1DDC, symBinAddr: 0x100003A08, symSize: 0x14 }
  - { offsetInCU: 0xD0C5, offset: 0xD0C5, size: 0x8, addend: 0x0, symName: __ZNSt3__19allocatorIPNS_5tupleIJiiiEEEE10deallocateB7v160006EPS3_m, symObjAddr: 0x1DF0, symBinAddr: 0x100003A1C, symSize: 0x40 }
  - { offsetInCU: 0xD107, offset: 0xD107, size: 0x8, addend: 0x0, symName: __ZNSt3__117__compressed_pairIPPNS_5tupleIJiiiEEENS_9allocatorIS3_EEE6secondB7v160006Ev, symObjAddr: 0x1E30, symBinAddr: 0x100003A5C, symSize: 0x24 }
  - { offsetInCU: 0xD12D, offset: 0xD12D, size: 0x8, addend: 0x0, symName: __ZNSt3__122__compressed_pair_elemINS_9allocatorIPNS_5tupleIJiiiEEEEELi1ELb1EE5__getB7v160006Ev, symObjAddr: 0x1E54, symBinAddr: 0x100003A80, symSize: 0x14 }
  - { offsetInCU: 0xD153, offset: 0xD153, size: 0x8, addend: 0x0, symName: __ZNKSt3__114__split_bufferIPNS_5tupleIJiiiEEENS_9allocatorIS3_EEE9__end_capB7v160006Ev, symObjAddr: 0x1E68, symBinAddr: 0x100003A94, symSize: 0x28 }
  - { offsetInCU: 0xD179, offset: 0xD179, size: 0x8, addend: 0x0, symName: __ZNKSt3__117__compressed_pairIPPNS_5tupleIJiiiEEENS_9allocatorIS3_EEE5firstB7v160006Ev, symObjAddr: 0x1E90, symBinAddr: 0x100003ABC, symSize: 0x24 }
  - { offsetInCU: 0xD19F, offset: 0xD19F, size: 0x8, addend: 0x0, symName: __ZNKSt3__122__compressed_pair_elemIPPNS_5tupleIJiiiEEELi0ELb0EE5__getB7v160006Ev, symObjAddr: 0x1EB4, symBinAddr: 0x100003AE0, symSize: 0x14 }
  - { offsetInCU: 0xD1C5, offset: 0xD1C5, size: 0x8, addend: 0x0, symName: __ZNKSt3__15dequeINS_5tupleIJiiiEEENS_9allocatorIS2_EEE13__front_spareB7v160006Ev, symObjAddr: 0x1EC8, symBinAddr: 0x100003AF4, symSize: 0x18 }
  - { offsetInCU: 0xD1EB, offset: 0xD1EB, size: 0x8, addend: 0x0, symName: __ZNSt3__15dequeINS_5tupleIJiiiEEENS_9allocatorIS2_EEE20__add_front_capacityEv, symObjAddr: 0x1EE0, symBinAddr: 0x100003B0C, symSize: 0x394 }
  - { offsetInCU: 0xD2A3, offset: 0xD2A3, size: 0x8, addend: 0x0, symName: __ZNSt3__116allocator_traitsINS_9allocatorINS_5tupleIJiiiEEEEEE9constructB7v160006IS3_JS3_EvEEvRS4_PT_DpOT0_, symObjAddr: 0x2274, symBinAddr: 0x100003EA0, symSize: 0x34 }
  - { offsetInCU: 0xD2FA, offset: 0xD2FA, size: 0x8, addend: 0x0, symName: __ZNSt3__116__deque_iteratorINS_5tupleIJiiiEEEPS2_RS2_PS3_lLl341EEmmB7v160006Ev, symObjAddr: 0x22A8, symBinAddr: 0x100003ED4, symSize: 0x68 }
  - { offsetInCU: 0xD320, offset: 0xD320, size: 0x8, addend: 0x0, symName: __ZNKSt3__15dequeINS_5tupleIJiiiEEENS_9allocatorIS2_EEE12__back_spareB7v160006Ev, symObjAddr: 0x2310, symBinAddr: 0x100003F3C, symSize: 0x54 }
  - { offsetInCU: 0xD346, offset: 0xD346, size: 0x8, addend: 0x0, symName: __ZNSt3__114__split_bufferIPNS_5tupleIJiiiEEENS_9allocatorIS3_EEE4backB7v160006Ev, symObjAddr: 0x2364, symBinAddr: 0x100003F90, symSize: 0x1C }
  - { offsetInCU: 0xD36C, offset: 0xD36C, size: 0x8, addend: 0x0, symName: __ZNSt3__114__split_bufferIPNS_5tupleIJiiiEEENS_9allocatorIS3_EEE8pop_backB7v160006Ev, symObjAddr: 0x2380, symBinAddr: 0x100003FAC, symSize: 0x2C }
  - { offsetInCU: 0xD392, offset: 0xD392, size: 0x8, addend: 0x0, symName: __ZNSt3__114__split_bufferIPNS_5tupleIJiiiEEENS_9allocatorIS3_EEE10push_frontERKS3_, symObjAddr: 0x23AC, symBinAddr: 0x100003FD8, symSize: 0x25C }
  - { offsetInCU: 0xD40B, offset: 0xD40B, size: 0x8, addend: 0x0, symName: __ZNKSt3__114__split_bufferIPNS_5tupleIJiiiEEENS_9allocatorIS3_EEE13__front_spareB7v160006Ev, symObjAddr: 0x2608, symBinAddr: 0x100004234, symSize: 0x28 }
  - { offsetInCU: 0xD431, offset: 0xD431, size: 0x8, addend: 0x0, symName: __ZNSt3__114__split_bufferIPNS_5tupleIJiiiEEENS_9allocatorIS3_EEE10push_frontEOS3_, symObjAddr: 0x2630, symBinAddr: 0x10000425C, symSize: 0x25C }
  - { offsetInCU: 0xD4AA, offset: 0xD4AA, size: 0x8, addend: 0x0, symName: __ZNSt3__116allocator_traitsINS_9allocatorINS_5tupleIJiiiEEEEEE8allocateB7v160006ERS4_m, symObjAddr: 0x288C, symBinAddr: 0x1000044B8, symSize: 0x2C }
  - { offsetInCU: 0xD4DD, offset: 0xD4DD, size: 0x8, addend: 0x0, symName: __ZNSt3__114__split_bufferIPNS_5tupleIJiiiEEENS_9allocatorIS3_EEE9push_backEOS3_, symObjAddr: 0x28B8, symBinAddr: 0x1000044E4, symSize: 0x260 }
  - { offsetInCU: 0xD556, offset: 0xD556, size: 0x8, addend: 0x0, symName: __ZNSt3__114__split_bufferIPNS_5tupleIJiiiEEERNS_9allocatorIS3_EEEC1EmmS6_, symObjAddr: 0x2B44, symBinAddr: 0x100004770, symSize: 0x44 }
  - { offsetInCU: 0xD5B1, offset: 0xD5B1, size: 0x8, addend: 0x0, symName: __ZNSt3__122__allocator_destructorINS_9allocatorINS_5tupleIJiiiEEEEEEC1B7v160006ERS4_m, symObjAddr: 0x2B88, symBinAddr: 0x1000047B4, symSize: 0x3C }
  - { offsetInCU: 0xD674, offset: 0xD674, size: 0x8, addend: 0x0, symName: __ZNSt3__110unique_ptrIPNS_5tupleIJiiiEEENS_22__allocator_destructorINS_9allocatorIS2_EEEEEC1B7v160006ILb1EvEES3_NS_16__dependent_typeINS_27__unique_ptr_deleter_sfinaeIS7_EEXT_EE20__good_rval_ref_typeE, symObjAddr: 0x2BC4, symBinAddr: 0x1000047F0, symSize: 0x3C }
  - { offsetInCU: 0xD6C5, offset: 0xD6C5, size: 0x8, addend: 0x0, symName: __ZNSt3__114__split_bufferIPNS_5tupleIJiiiEEERNS_9allocatorIS3_EEE9push_backEOS3_, symObjAddr: 0x2C00, symBinAddr: 0x10000482C, symSize: 0x260 }
  - { offsetInCU: 0xD73E, offset: 0xD73E, size: 0x8, addend: 0x0, symName: __ZNKSt3__110unique_ptrIPNS_5tupleIJiiiEEENS_22__allocator_destructorINS_9allocatorIS2_EEEEE3getB7v160006Ev, symObjAddr: 0x2E60, symBinAddr: 0x100004A8C, symSize: 0x28 }
  - { offsetInCU: 0xD764, offset: 0xD764, size: 0x8, addend: 0x0, symName: __ZNSt3__110unique_ptrIPNS_5tupleIJiiiEEENS_22__allocator_destructorINS_9allocatorIS2_EEEEE7releaseB7v160006Ev, symObjAddr: 0x2E88, symBinAddr: 0x100004AB4, symSize: 0x44 }
  - { offsetInCU: 0xD799, offset: 0xD799, size: 0x8, addend: 0x0, symName: __ZNSt3__114__split_bufferIPNS_5tupleIJiiiEEERNS_9allocatorIS3_EEE9push_backB7v160006ERKS3_, symObjAddr: 0x2ECC, symBinAddr: 0x100004AF8, symSize: 0x260 }
  - { offsetInCU: 0xD812, offset: 0xD812, size: 0x8, addend: 0x0, symName: __ZNSt3__114__split_bufferIPNS_5tupleIJiiiEEENS_9allocatorIS3_EEE9__end_capB7v160006Ev, symObjAddr: 0x3168, symBinAddr: 0x100004D94, symSize: 0x28 }
  - { offsetInCU: 0xD838, offset: 0xD838, size: 0x8, addend: 0x0, symName: __ZNSt3__114__split_bufferIPNS_5tupleIJiiiEEERNS_9allocatorIS3_EEE9__end_capB7v160006Ev, symObjAddr: 0x3190, symBinAddr: 0x100004DBC, symSize: 0x28 }
  - { offsetInCU: 0xD85E, offset: 0xD85E, size: 0x8, addend: 0x0, symName: __ZNSt3__110unique_ptrIPNS_5tupleIJiiiEEENS_22__allocator_destructorINS_9allocatorIS2_EEEEED1B7v160006Ev, symObjAddr: 0x31B8, symBinAddr: 0x100004DE4, symSize: 0x2C }
  - { offsetInCU: 0xD888, offset: 0xD888, size: 0x8, addend: 0x0, symName: __ZNSt3__114__split_bufferIPNS_5tupleIJiiiEEERNS_9allocatorIS3_EEED1Ev, symObjAddr: 0x31E4, symBinAddr: 0x100004E10, symSize: 0x2C }
  - { offsetInCU: 0xD8B4, offset: 0xD8B4, size: 0x8, addend: 0x0, symName: __ZNKSt3__15dequeINS_5tupleIJiiiEEENS_9allocatorIS2_EEE10__capacityB7v160006Ev, symObjAddr: 0x3210, symBinAddr: 0x100004E3C, symSize: 0x64 }
  - { offsetInCU: 0xD8DA, offset: 0xD8DA, size: 0x8, addend: 0x0, symName: __ZNSt3__114__split_bufferIPNS_5tupleIJiiiEEERNS_9allocatorIS3_EEE18__construct_at_endINS_13move_iteratorIPS3_EEEENS_9enable_ifIXsr27__is_cpp17_forward_iteratorIT_EE5valueEvE4typeESD_SD_, symObjAddr: 0x32B4, symBinAddr: 0x100004EE0, symSize: 0xFC }
  - { offsetInCU: 0xD936, offset: 0xD936, size: 0x8, addend: 0x0, symName: __ZNSt3__113move_iteratorIPPNS_5tupleIJiiiEEEEC1B7v160006ES4_, symObjAddr: 0x33B0, symBinAddr: 0x100004FDC, symSize: 0x34 }
  - { offsetInCU: 0xD96E, offset: 0xD96E, size: 0x8, addend: 0x0, symName: __ZNSt3__116allocator_traitsINS_9allocatorIPNS_5tupleIJiiiEEEEEE9constructB7v160006IS4_JRKS4_EvEEvRS5_PT_DpOT0_, symObjAddr: 0x33E4, symBinAddr: 0x100005010, symSize: 0x34 }
  - { offsetInCU: 0xD9E8, offset: 0xD9E8, size: 0x8, addend: 0x0, symName: __ZNKSt3__123__move_backward_trivialclB7v160006IPNS_5tupleIJiiiEEES4_Li0EEENS_4pairIPT_PT0_EES7_S7_S9_, symObjAddr: 0x35B4, symBinAddr: 0x1000051E0, symSize: 0x48 }
  - { offsetInCU: 0xDA50, offset: 0xDA50, size: 0x8, addend: 0x0, symName: __ZNSt3__14pairIPPNS_5tupleIJiiiEEES4_EC1B7v160006IRS4_S7_LPv0EEEOT_OT0_, symObjAddr: 0x378C, symBinAddr: 0x1000053B8, symSize: 0x3C }
  - { offsetInCU: 0xDAAE, offset: 0xDAAE, size: 0x8, addend: 0x0, symName: __ZNSt3__14pairIPPNS_5tupleIJiiiEEES4_EC2B7v160006IRS4_S7_LPv0EEEOT_OT0_, symObjAddr: 0x37C8, symBinAddr: 0x1000053F4, symSize: 0x34 }
  - { offsetInCU: 0xDB0C, offset: 0xDB0C, size: 0x8, addend: 0x0, symName: __ZNSt3__118__unwrap_iter_implIPPNS_5tupleIJiiiEEELb1EE8__unwrapB7v160006ES4_, symObjAddr: 0x37FC, symBinAddr: 0x100005428, symSize: 0x24 }
  - { offsetInCU: 0xDB34, offset: 0xDB34, size: 0x8, addend: 0x0, symName: __ZNSt3__14pairIPPNS_5tupleIJiiiEEES4_EC1B7v160006IS4_S4_LPv0EEEOT_OT0_, symObjAddr: 0x3820, symBinAddr: 0x10000544C, symSize: 0x3C }
  - { offsetInCU: 0xDB92, offset: 0xDB92, size: 0x8, addend: 0x0, symName: __ZNSt3__14pairIPPNS_5tupleIJiiiEEES4_EC2B7v160006IS4_S4_LPv0EEEOT_OT0_, symObjAddr: 0x385C, symBinAddr: 0x100005488, symSize: 0x34 }
  - { offsetInCU: 0xDBF0, offset: 0xDBF0, size: 0x8, addend: 0x0, symName: __ZNSt3__118__unwrap_iter_implIPPNS_5tupleIJiiiEEELb1EE8__rewrapB7v160006ES4_S4_, symObjAddr: 0x3890, symBinAddr: 0x1000054BC, symSize: 0x50 }
  - { offsetInCU: 0xDC2B, offset: 0xDC2B, size: 0x8, addend: 0x0, symName: __ZNSt3__114__split_bufferIPNS_5tupleIJiiiEEERNS_9allocatorIS3_EEE21_ConstructTransactionC1B7v160006EPPS3_m, symObjAddr: 0x391C, symBinAddr: 0x100005548, symSize: 0x3C }
  - { offsetInCU: 0xDC71, offset: 0xDC71, size: 0x8, addend: 0x0, symName: __ZNSt3__116allocator_traitsINS_9allocatorIPNS_5tupleIJiiiEEEEEE9constructB7v160006IS4_JS4_EvEEvRS5_PT_DpOT0_, symObjAddr: 0x3958, symBinAddr: 0x100005584, symSize: 0x34 }
  - { offsetInCU: 0xDCC8, offset: 0xDCC8, size: 0x8, addend: 0x0, symName: __ZNSt3__114__split_bufferIPNS_5tupleIJiiiEEERNS_9allocatorIS3_EEE7__allocB7v160006Ev, symObjAddr: 0x398C, symBinAddr: 0x1000055B8, symSize: 0x28 }
  - { offsetInCU: 0xDCEE, offset: 0xDCEE, size: 0x8, addend: 0x0, symName: __ZNKSt3__113move_iteratorIPPNS_5tupleIJiiiEEEEdeB7v160006Ev, symObjAddr: 0x39B4, symBinAddr: 0x1000055E0, symSize: 0x18 }
  - { offsetInCU: 0xDD14, offset: 0xDD14, size: 0x8, addend: 0x0, symName: __ZNSt3__113move_iteratorIPPNS_5tupleIJiiiEEEEppB7v160006Ev, symObjAddr: 0x39CC, symBinAddr: 0x1000055F8, symSize: 0x20 }
  - { offsetInCU: 0xDD3A, offset: 0xDD3A, size: 0x8, addend: 0x0, symName: __ZNSt3__114__split_bufferIPNS_5tupleIJiiiEEERNS_9allocatorIS3_EEE21_ConstructTransactionD1B7v160006Ev, symObjAddr: 0x39EC, symBinAddr: 0x100005618, symSize: 0x2C }
  - { offsetInCU: 0xDD64, offset: 0xDD64, size: 0x8, addend: 0x0, symName: __ZNKSt3__113move_iteratorIPPNS_5tupleIJiiiEEEE4baseB7v160006Ev, symObjAddr: 0x3A90, symBinAddr: 0x1000056BC, symSize: 0x18 }
  - { offsetInCU: 0xDD8A, offset: 0xDD8A, size: 0x8, addend: 0x0, symName: __ZNSt3__114__split_bufferIPNS_5tupleIJiiiEEERNS_9allocatorIS3_EEE21_ConstructTransactionC2B7v160006EPPS3_m, symObjAddr: 0x3AA8, symBinAddr: 0x1000056D4, symSize: 0x44 }
  - { offsetInCU: 0xDDD0, offset: 0xDDD0, size: 0x8, addend: 0x0, symName: __ZNSt3__19allocatorIPNS_5tupleIJiiiEEEE9constructB7v160006IS3_JS3_EEEvPT_DpOT0_, symObjAddr: 0x3AEC, symBinAddr: 0x100005718, symSize: 0x28 }
  - { offsetInCU: 0xDE26, offset: 0xDE26, size: 0x8, addend: 0x0, symName: __ZNSt3__117__compressed_pairIPPNS_5tupleIJiiiEEERNS_9allocatorIS3_EEE6secondB7v160006Ev, symObjAddr: 0x3B14, symBinAddr: 0x100005740, symSize: 0x28 }
  - { offsetInCU: 0xDE4C, offset: 0xDE4C, size: 0x8, addend: 0x0, symName: __ZNSt3__122__compressed_pair_elemIRNS_9allocatorIPNS_5tupleIJiiiEEEEELi1ELb0EE5__getB7v160006Ev, symObjAddr: 0x3B3C, symBinAddr: 0x100005768, symSize: 0x18 }
  - { offsetInCU: 0xDE72, offset: 0xDE72, size: 0x8, addend: 0x0, symName: __ZNSt3__114__split_bufferIPNS_5tupleIJiiiEEERNS_9allocatorIS3_EEE21_ConstructTransactionD2B7v160006Ev, symObjAddr: 0x3B54, symBinAddr: 0x100005780, symSize: 0x20 }
  - { offsetInCU: 0xDE9C, offset: 0xDE9C, size: 0x8, addend: 0x0, symName: __ZNSt3__113move_iteratorIPPNS_5tupleIJiiiEEEEC2B7v160006ES4_, symObjAddr: 0x3B74, symBinAddr: 0x1000057A0, symSize: 0x20 }
  - { offsetInCU: 0xDED4, offset: 0xDED4, size: 0x8, addend: 0x0, symName: __ZNSt3__19allocatorIPNS_5tupleIJiiiEEEE9constructB7v160006IS3_JRKS3_EEEvPT_DpOT0_, symObjAddr: 0x3B94, symBinAddr: 0x1000057C0, symSize: 0x28 }
  - { offsetInCU: 0xDF2A, offset: 0xDF2A, size: 0x8, addend: 0x0, symName: __ZNSt3__19allocatorINS_5tupleIJiiiEEEE8allocateB7v160006Em, symObjAddr: 0x3BBC, symBinAddr: 0x1000057E8, symSize: 0x5C }
  - { offsetInCU: 0xDF68, offset: 0xDF68, size: 0x8, addend: 0x0, symName: __ZNSt3__116allocator_traitsINS_9allocatorINS_5tupleIJiiiEEEEEE8max_sizeB7v160006IS4_vEEmRKS4_, symObjAddr: 0x3C18, symBinAddr: 0x100005844, symSize: 0x24 }
  - { offsetInCU: 0xDF96, offset: 0xDF96, size: 0x8, addend: 0x0, symName: __ZNKSt3__19allocatorINS_5tupleIJiiiEEEE8max_sizeB7v160006Ev, symObjAddr: 0x3C98, symBinAddr: 0x1000058C4, symSize: 0x18 }
  - { offsetInCU: 0xDFC6, offset: 0xDFC6, size: 0x8, addend: 0x0, symName: __ZNKSt3__114__move_trivialclB7v160006IPNS_5tupleIJiiiEEES4_Li0EEENS_4pairIPT_PT0_EES7_S7_S9_, symObjAddr: 0x3E50, symBinAddr: 0x100005A7C, symSize: 0x48 }
  - { offsetInCU: 0xE02E, offset: 0xE02E, size: 0x8, addend: 0x0, symName: __ZNSt3__14pairIPPNS_5tupleIJiiiEEES4_EC1B7v160006IRS4_S4_LPv0EEEOT_OT0_, symObjAddr: 0x3F54, symBinAddr: 0x100005B80, symSize: 0x3C }
  - { offsetInCU: 0xE08C, offset: 0xE08C, size: 0x8, addend: 0x0, symName: __ZNSt3__14pairIPPNS_5tupleIJiiiEEES4_EC2B7v160006IRS4_S4_LPv0EEEOT_OT0_, symObjAddr: 0x3F90, symBinAddr: 0x100005BBC, symSize: 0x34 }
  - { offsetInCU: 0xE0F4, offset: 0xE0F4, size: 0x8, addend: 0x0, symName: __ZNKSt3__16__lessImmEclB7v160006ERKmS3_, symObjAddr: 0x4018, symBinAddr: 0x100005C44, symSize: 0x34 }
  - { offsetInCU: 0xE136, offset: 0xE136, size: 0x8, addend: 0x0, symName: __ZNSt3__114__split_bufferIPNS_5tupleIJiiiEEERNS_9allocatorIS3_EEEC2EmmS6_, symObjAddr: 0x404C, symBinAddr: 0x100005C78, symSize: 0xD4 }
  - { offsetInCU: 0xE1AA, offset: 0xE1AA, size: 0x8, addend: 0x0, symName: __ZNSt3__117__compressed_pairIPPNS_5tupleIJiiiEEERNS_9allocatorIS3_EEEC1B7v160006IDnS7_EEOT_OT0_, symObjAddr: 0x4120, symBinAddr: 0x100005D4C, symSize: 0x3C }
  - { offsetInCU: 0xE202, offset: 0xE202, size: 0x8, addend: 0x0, symName: __ZNSt3__117__compressed_pairIPPNS_5tupleIJiiiEEERNS_9allocatorIS3_EEEC2B7v160006IDnS7_EEOT_OT0_, symObjAddr: 0x419C, symBinAddr: 0x100005DC8, symSize: 0x48 }
  - { offsetInCU: 0xE25A, offset: 0xE25A, size: 0x8, addend: 0x0, symName: __ZNSt3__122__compressed_pair_elemIRNS_9allocatorIPNS_5tupleIJiiiEEEEELi1ELb0EEC2B7v160006IS6_vEEOT_, symObjAddr: 0x41E4, symBinAddr: 0x100005E10, symSize: 0x20 }
  - { offsetInCU: 0xE29C, offset: 0xE29C, size: 0x8, addend: 0x0, symName: __ZNSt3__19allocatorIPNS_5tupleIJiiiEEEE8allocateB7v160006Em, symObjAddr: 0x4204, symBinAddr: 0x100005E30, symSize: 0x58 }
  - { offsetInCU: 0xE2DA, offset: 0xE2DA, size: 0x8, addend: 0x0, symName: __ZNSt3__116allocator_traitsINS_9allocatorIPNS_5tupleIJiiiEEEEEE8max_sizeB7v160006IS5_vEEmRKS5_, symObjAddr: 0x425C, symBinAddr: 0x100005E88, symSize: 0x24 }
  - { offsetInCU: 0xE308, offset: 0xE308, size: 0x8, addend: 0x0, symName: __ZNKSt3__19allocatorIPNS_5tupleIJiiiEEEE8max_sizeB7v160006Ev, symObjAddr: 0x4280, symBinAddr: 0x100005EAC, symSize: 0x14 }
  - { offsetInCU: 0xE32E, offset: 0xE32E, size: 0x8, addend: 0x0, symName: __ZNSt3__122__allocator_destructorINS_9allocatorINS_5tupleIJiiiEEEEEEC2B7v160006ERS4_m, symObjAddr: 0x4294, symBinAddr: 0x100005EC0, symSize: 0x2C }
  - { offsetInCU: 0xE374, offset: 0xE374, size: 0x8, addend: 0x0, symName: __ZNSt3__110unique_ptrIPNS_5tupleIJiiiEEENS_22__allocator_destructorINS_9allocatorIS2_EEEEEC2B7v160006ILb1EvEES3_NS_16__dependent_typeINS_27__unique_ptr_deleter_sfinaeIS7_EEXT_EE20__good_rval_ref_typeE, symObjAddr: 0x42C0, symBinAddr: 0x100005EEC, symSize: 0x48 }
  - { offsetInCU: 0xE3C5, offset: 0xE3C5, size: 0x8, addend: 0x0, symName: __ZNSt3__117__compressed_pairIPNS_5tupleIJiiiEEENS_22__allocator_destructorINS_9allocatorIS2_EEEEEC1B7v160006IRS3_S7_EEOT_OT0_, symObjAddr: 0x4308, symBinAddr: 0x100005F34, symSize: 0x3C }
  - { offsetInCU: 0xE41D, offset: 0xE41D, size: 0x8, addend: 0x0, symName: __ZNSt3__117__compressed_pairIPNS_5tupleIJiiiEEENS_22__allocator_destructorINS_9allocatorIS2_EEEEEC2B7v160006IRS3_S7_EEOT_OT0_, symObjAddr: 0x4344, symBinAddr: 0x100005F70, symSize: 0x48 }
  - { offsetInCU: 0xE475, offset: 0xE475, size: 0x8, addend: 0x0, symName: __ZNSt3__122__compressed_pair_elemIPNS_5tupleIJiiiEEELi0ELb0EEC2B7v160006IRS3_vEEOT_, symObjAddr: 0x438C, symBinAddr: 0x100005FB8, symSize: 0x24 }
  - { offsetInCU: 0xE4B7, offset: 0xE4B7, size: 0x8, addend: 0x0, symName: __ZNSt3__122__compressed_pair_elemINS_22__allocator_destructorINS_9allocatorINS_5tupleIJiiiEEEEEEELi1ELb0EEC2B7v160006IS6_vEEOT_, symObjAddr: 0x43B0, symBinAddr: 0x100005FDC, symSize: 0x24 }
  - { offsetInCU: 0xE4F9, offset: 0xE4F9, size: 0x8, addend: 0x0, symName: __ZNKSt3__117__compressed_pairIPNS_5tupleIJiiiEEENS_22__allocator_destructorINS_9allocatorIS2_EEEEE5firstB7v160006Ev, symObjAddr: 0x43D4, symBinAddr: 0x100006000, symSize: 0x24 }
  - { offsetInCU: 0xE51F, offset: 0xE51F, size: 0x8, addend: 0x0, symName: __ZNKSt3__122__compressed_pair_elemIPNS_5tupleIJiiiEEELi0ELb0EE5__getB7v160006Ev, symObjAddr: 0x43F8, symBinAddr: 0x100006024, symSize: 0x14 }
  - { offsetInCU: 0xE545, offset: 0xE545, size: 0x8, addend: 0x0, symName: __ZNSt3__117__compressed_pairIPNS_5tupleIJiiiEEENS_22__allocator_destructorINS_9allocatorIS2_EEEEE5firstB7v160006Ev, symObjAddr: 0x440C, symBinAddr: 0x100006038, symSize: 0x24 }
  - { offsetInCU: 0xE56B, offset: 0xE56B, size: 0x8, addend: 0x0, symName: __ZNSt3__122__compressed_pair_elemIPNS_5tupleIJiiiEEELi0ELb0EE5__getB7v160006Ev, symObjAddr: 0x4430, symBinAddr: 0x10000605C, symSize: 0x14 }
  - { offsetInCU: 0xE591, offset: 0xE591, size: 0x8, addend: 0x0, symName: __ZNSt3__117__compressed_pairIPPNS_5tupleIJiiiEEENS_9allocatorIS3_EEE5firstB7v160006Ev, symObjAddr: 0x4444, symBinAddr: 0x100006070, symSize: 0x24 }
  - { offsetInCU: 0xE5B7, offset: 0xE5B7, size: 0x8, addend: 0x0, symName: __ZNSt3__122__compressed_pair_elemIPPNS_5tupleIJiiiEEELi0ELb0EE5__getB7v160006Ev, symObjAddr: 0x4468, symBinAddr: 0x100006094, symSize: 0x14 }
  - { offsetInCU: 0xE5DD, offset: 0xE5DD, size: 0x8, addend: 0x0, symName: __ZNSt3__117__compressed_pairIPPNS_5tupleIJiiiEEERNS_9allocatorIS3_EEE5firstB7v160006Ev, symObjAddr: 0x447C, symBinAddr: 0x1000060A8, symSize: 0x24 }
  - { offsetInCU: 0xE603, offset: 0xE603, size: 0x8, addend: 0x0, symName: __ZNSt3__110unique_ptrIPNS_5tupleIJiiiEEENS_22__allocator_destructorINS_9allocatorIS2_EEEEED2B7v160006Ev, symObjAddr: 0x44A0, symBinAddr: 0x1000060CC, symSize: 0x30 }
  - { offsetInCU: 0xE62D, offset: 0xE62D, size: 0x8, addend: 0x0, symName: __ZNSt3__110unique_ptrIPNS_5tupleIJiiiEEENS_22__allocator_destructorINS_9allocatorIS2_EEEEE5resetB7v160006ES3_, symObjAddr: 0x44D0, symBinAddr: 0x1000060FC, symSize: 0x78 }
  - { offsetInCU: 0xE671, offset: 0xE671, size: 0x8, addend: 0x0, symName: __ZNSt3__117__compressed_pairIPNS_5tupleIJiiiEEENS_22__allocator_destructorINS_9allocatorIS2_EEEEE6secondB7v160006Ev, symObjAddr: 0x4548, symBinAddr: 0x100006174, symSize: 0x28 }
  - { offsetInCU: 0xE697, offset: 0xE697, size: 0x8, addend: 0x0, symName: __ZNSt3__122__allocator_destructorINS_9allocatorINS_5tupleIJiiiEEEEEEclB7v160006EPS3_, symObjAddr: 0x4570, symBinAddr: 0x10000619C, symSize: 0x34 }
  - { offsetInCU: 0xE6CB, offset: 0xE6CB, size: 0x8, addend: 0x0, symName: __ZNSt3__122__compressed_pair_elemINS_22__allocator_destructorINS_9allocatorINS_5tupleIJiiiEEEEEEELi1ELb0EE5__getB7v160006Ev, symObjAddr: 0x45A4, symBinAddr: 0x1000061D0, symSize: 0x14 }
  - { offsetInCU: 0xE6F1, offset: 0xE6F1, size: 0x8, addend: 0x0, symName: __ZNSt3__114__split_bufferIPNS_5tupleIJiiiEEERNS_9allocatorIS3_EEED2Ev, symObjAddr: 0x45B8, symBinAddr: 0x1000061E4, symSize: 0x8C }
  - { offsetInCU: 0xE71D, offset: 0xE71D, size: 0x8, addend: 0x0, symName: __ZNSt3__114__split_bufferIPNS_5tupleIJiiiEEERNS_9allocatorIS3_EEE5clearB7v160006Ev, symObjAddr: 0x4644, symBinAddr: 0x100006270, symSize: 0x28 }
  - { offsetInCU: 0xE743, offset: 0xE743, size: 0x8, addend: 0x0, symName: __ZNKSt3__114__split_bufferIPNS_5tupleIJiiiEEERNS_9allocatorIS3_EEE8capacityB7v160006Ev, symObjAddr: 0x466C, symBinAddr: 0x100006298, symSize: 0x40 }
  - { offsetInCU: 0xE769, offset: 0xE769, size: 0x8, addend: 0x0, symName: __ZNSt3__114__split_bufferIPNS_5tupleIJiiiEEERNS_9allocatorIS3_EEE17__destruct_at_endB7v160006EPS3_, symObjAddr: 0x46AC, symBinAddr: 0x1000062D8, symSize: 0x2C }
  - { offsetInCU: 0xE79D, offset: 0xE79D, size: 0x8, addend: 0x0, symName: __ZNSt3__114__split_bufferIPNS_5tupleIJiiiEEERNS_9allocatorIS3_EEE17__destruct_at_endB7v160006EPS3_NS_17integral_constantIbLb0EEE, symObjAddr: 0x46D8, symBinAddr: 0x100006304, symSize: 0x80 }
  - { offsetInCU: 0xE7DD, offset: 0xE7DD, size: 0x8, addend: 0x0, symName: __ZNKSt3__114__split_bufferIPNS_5tupleIJiiiEEERNS_9allocatorIS3_EEE9__end_capB7v160006Ev, symObjAddr: 0x4758, symBinAddr: 0x100006384, symSize: 0x28 }
  - { offsetInCU: 0xE803, offset: 0xE803, size: 0x8, addend: 0x0, symName: __ZNKSt3__117__compressed_pairIPPNS_5tupleIJiiiEEERNS_9allocatorIS3_EEE5firstB7v160006Ev, symObjAddr: 0x4780, symBinAddr: 0x1000063AC, symSize: 0x24 }
  - { offsetInCU: 0xE829, offset: 0xE829, size: 0x8, addend: 0x0, symName: __ZNSt3__19allocatorINS_5tupleIJiiiEEEE9constructB7v160006IS2_JS2_EEEvPT_DpOT0_, symObjAddr: 0x47A4, symBinAddr: 0x1000063D0, symSize: 0x30 }
  - { offsetInCU: 0xE87F, offset: 0xE87F, size: 0x8, addend: 0x0, symName: __ZNSt3__15dequeINS_5tupleIJiiiEEENS_9allocatorIS2_EEE26__maybe_remove_front_spareB7v160006Eb, symObjAddr: 0x47E8, symBinAddr: 0x100006414, symSize: 0xDC }
  - { offsetInCU: 0xE8B4, offset: 0xE8B4, size: 0x8, addend: 0x0, symName: __ZNKSt3__15dequeINS_5tupleIJiiiEEENS_9allocatorIS2_EEE20__front_spare_blocksB7v160006Ev, symObjAddr: 0x48C4, symBinAddr: 0x1000064F0, symSize: 0x2C }
  - { offsetInCU: 0xE8DA, offset: 0xE8DA, size: 0x8, addend: 0x0, symName: __ZNSt3__15dequeINS_5tupleIJiiiEEENS_9allocatorIS2_EEE19__add_back_capacityEv, symObjAddr: 0x48F0, symBinAddr: 0x10000651C, symSize: 0x314 }
  - { offsetInCU: 0xE992, offset: 0xE992, size: 0x8, addend: 0x0, symName: __ZNSt3__114__split_bufferIPNS_5tupleIJiiiEEENS_9allocatorIS3_EEE9push_backB7v160006ERKS3_, symObjAddr: 0x4C04, symBinAddr: 0x100006830, symSize: 0x260 }
  - { offsetInCU: 0xEA0B, offset: 0xEA0B, size: 0x8, addend: 0x0, symName: __ZNKSt3__114__split_bufferIPNS_5tupleIJiiiEEENS_9allocatorIS3_EEE12__back_spareB7v160006Ev, symObjAddr: 0x4E64, symBinAddr: 0x100006A90, symSize: 0x40 }
  - { offsetInCU: 0xEA31, offset: 0xEA31, size: 0x8, addend: 0x0, symName: __ZNSt3__114__split_bufferIPNS_5tupleIJiiiEEERNS_9allocatorIS3_EEE10push_frontERKS3_, symObjAddr: 0x4EA4, symBinAddr: 0x100006AD0, symSize: 0x25C }
  - { offsetInCU: 0xEAAA, offset: 0xEAAA, size: 0x8, addend: 0x0, symName: __ZNSt3__111char_traitsIcE6lengthEPKc, symObjAddr: 0x52EC, symBinAddr: 0x100006F18, symSize: 0x34 }
  - { offsetInCU: 0xEAEB, offset: 0xEAEB, size: 0x8, addend: 0x0, symName: __ZNKSt3__113basic_ostreamIcNS_11char_traitsIcEEE6sentrycvbB7v160006Ev, symObjAddr: 0x5320, symBinAddr: 0x100006F4C, symSize: 0x1C }
  - { offsetInCU: 0xEB11, offset: 0xEB11, size: 0x8, addend: 0x0, symName: __ZNSt3__119ostreambuf_iteratorIcNS_11char_traitsIcEEEC1B7v160006ERNS_13basic_ostreamIcS2_EE, symObjAddr: 0x557C, symBinAddr: 0x1000071A8, symSize: 0x34 }
  - { offsetInCU: 0xEB49, offset: 0xEB49, size: 0x8, addend: 0x0, symName: __ZNKSt3__18ios_base5flagsB7v160006Ev, symObjAddr: 0x55B0, symBinAddr: 0x1000071DC, symSize: 0x18 }
  - { offsetInCU: 0xEB71, offset: 0xEB71, size: 0x8, addend: 0x0, symName: __ZNKSt3__19basic_iosIcNS_11char_traitsIcEEE4fillB7v160006Ev, symObjAddr: 0x55C8, symBinAddr: 0x1000071F4, symSize: 0x64 }
  - { offsetInCU: 0xEB99, offset: 0xEB99, size: 0x8, addend: 0x0, symName: __ZNKSt3__119ostreambuf_iteratorIcNS_11char_traitsIcEEE6failedB7v160006Ev, symObjAddr: 0x562C, symBinAddr: 0x100007258, symSize: 0x24 }
  - { offsetInCU: 0xEBBF, offset: 0xEBBF, size: 0x8, addend: 0x0, symName: __ZNSt3__19basic_iosIcNS_11char_traitsIcEEE8setstateB7v160006Ej, symObjAddr: 0x5650, symBinAddr: 0x10000727C, symSize: 0x2C }
  - { offsetInCU: 0xEBF4, offset: 0xEBF4, size: 0x8, addend: 0x0, symName: __ZNKSt3__18ios_base5widthB7v160006Ev, symObjAddr: 0x567C, symBinAddr: 0x1000072A8, symSize: 0x18 }
  - { offsetInCU: 0xEC1C, offset: 0xEC1C, size: 0x8, addend: 0x0, symName: __ZNSt3__115basic_streambufIcNS_11char_traitsIcEEE5sputnB7v160006EPKcl, symObjAddr: 0x5694, symBinAddr: 0x1000072C0, symSize: 0x3C }
  - { offsetInCU: 0xEC5E, offset: 0xEC5E, size: 0x8, addend: 0x0, symName: __ZNSt3__112basic_stringIcNS_11char_traitsIcEENS_9allocatorIcEEEC1B7v160006Emc, symObjAddr: 0x56D0, symBinAddr: 0x1000072FC, symSize: 0x3C }
  - { offsetInCU: 0xECA6, offset: 0xECA6, size: 0x8, addend: 0x0, symName: __ZNKSt3__112basic_stringIcNS_11char_traitsIcEENS_9allocatorIcEEE4dataB7v160006Ev, symObjAddr: 0x570C, symBinAddr: 0x100007338, symSize: 0x28 }
  - { offsetInCU: 0xECCC, offset: 0xECCC, size: 0x8, addend: 0x0, symName: __ZNSt3__18ios_base5widthB7v160006El, symObjAddr: 0x5734, symBinAddr: 0x100007360, symSize: 0x2C }
  - { offsetInCU: 0xED12, offset: 0xED12, size: 0x8, addend: 0x0, symName: __ZNSt3__112basic_stringIcNS_11char_traitsIcEENS_9allocatorIcEEEC2B7v160006Emc, symObjAddr: 0x5760, symBinAddr: 0x10000738C, symSize: 0x54 }
  - { offsetInCU: 0xED5A, offset: 0xED5A, size: 0x8, addend: 0x0, symName: __ZNSt3__117__compressed_pairINS_12basic_stringIcNS_11char_traitsIcEENS_9allocatorIcEEE5__repES5_EC1B7v160006INS_18__default_init_tagESA_EEOT_OT0_, symObjAddr: 0x57B4, symBinAddr: 0x1000073E0, symSize: 0x3C }
  - { offsetInCU: 0xEDB2, offset: 0xEDB2, size: 0x8, addend: 0x0, symName: __ZNSt3__117__compressed_pairINS_12basic_stringIcNS_11char_traitsIcEENS_9allocatorIcEEE5__repES5_EC2B7v160006INS_18__default_init_tagESA_EEOT_OT0_, symObjAddr: 0x5800, symBinAddr: 0x10000742C, symSize: 0x3C }
  - { offsetInCU: 0xEE0A, offset: 0xEE0A, size: 0x8, addend: 0x0, symName: __ZNSt3__122__compressed_pair_elemINS_12basic_stringIcNS_11char_traitsIcEENS_9allocatorIcEEE5__repELi0ELb0EEC2B7v160006ENS_18__default_init_tagE, symObjAddr: 0x583C, symBinAddr: 0x100007468, symSize: 0x14 }
  - { offsetInCU: 0xEE3E, offset: 0xEE3E, size: 0x8, addend: 0x0, symName: __ZNSt3__122__compressed_pair_elemINS_9allocatorIcEELi1ELb1EEC2B7v160006ENS_18__default_init_tagE, symObjAddr: 0x5850, symBinAddr: 0x10000747C, symSize: 0x2C }
  - { offsetInCU: 0xEE72, offset: 0xEE72, size: 0x8, addend: 0x0, symName: __ZNSt3__19allocatorIcEC2B7v160006Ev, symObjAddr: 0x587C, symBinAddr: 0x1000074A8, symSize: 0x2C }
  - { offsetInCU: 0xEE9C, offset: 0xEE9C, size: 0x8, addend: 0x0, symName: __ZNSt3__116__non_trivial_ifILb1ENS_9allocatorIcEEEC2B7v160006Ev, symObjAddr: 0x58A8, symBinAddr: 0x1000074D4, symSize: 0x14 }
  - { offsetInCU: 0xEEC6, offset: 0xEEC6, size: 0x8, addend: 0x0, symName: __ZNKSt3__112basic_stringIcNS_11char_traitsIcEENS_9allocatorIcEEE13__get_pointerB7v160006Ev, symObjAddr: 0x58D0, symBinAddr: 0x1000074FC, symSize: 0x54 }
  - { offsetInCU: 0xEEEC, offset: 0xEEEC, size: 0x8, addend: 0x0, symName: __ZNKSt3__112basic_stringIcNS_11char_traitsIcEENS_9allocatorIcEEE9__is_longB7v160006Ev, symObjAddr: 0x5924, symBinAddr: 0x100007550, symSize: 0x38 }
  - { offsetInCU: 0xEF12, offset: 0xEF12, size: 0x8, addend: 0x0, symName: __ZNKSt3__112basic_stringIcNS_11char_traitsIcEENS_9allocatorIcEEE18__get_long_pointerB7v160006Ev, symObjAddr: 0x595C, symBinAddr: 0x100007588, symSize: 0x28 }
  - { offsetInCU: 0xEF38, offset: 0xEF38, size: 0x8, addend: 0x0, symName: __ZNKSt3__112basic_stringIcNS_11char_traitsIcEENS_9allocatorIcEEE19__get_short_pointerB7v160006Ev, symObjAddr: 0x5984, symBinAddr: 0x1000075B0, symSize: 0x28 }
  - { offsetInCU: 0xEF5E, offset: 0xEF5E, size: 0x8, addend: 0x0, symName: __ZNKSt3__117__compressed_pairINS_12basic_stringIcNS_11char_traitsIcEENS_9allocatorIcEEE5__repES5_E5firstB7v160006Ev, symObjAddr: 0x59AC, symBinAddr: 0x1000075D8, symSize: 0x24 }
  - { offsetInCU: 0xEF84, offset: 0xEF84, size: 0x8, addend: 0x0, symName: __ZNKSt3__122__compressed_pair_elemINS_12basic_stringIcNS_11char_traitsIcEENS_9allocatorIcEEE5__repELi0ELb0EE5__getB7v160006Ev, symObjAddr: 0x59D0, symBinAddr: 0x1000075FC, symSize: 0x14 }
  - { offsetInCU: 0xEFAA, offset: 0xEFAA, size: 0x8, addend: 0x0, symName: __ZNSt3__114pointer_traitsIPKcE10pointer_toB7v160006ERS1_, symObjAddr: 0x59E4, symBinAddr: 0x100007610, symSize: 0x14 }
  - { offsetInCU: 0xEFCD, offset: 0xEFCD, size: 0x8, addend: 0x0, symName: __ZNSt3__119ostreambuf_iteratorIcNS_11char_traitsIcEEEC2B7v160006ERNS_13basic_ostreamIcS2_EE, symObjAddr: 0x59F8, symBinAddr: 0x100007624, symSize: 0x54 }
  - { offsetInCU: 0xF005, offset: 0xF005, size: 0x8, addend: 0x0, symName: __ZNKSt3__19basic_iosIcNS_11char_traitsIcEEE5rdbufB7v160006Ev, symObjAddr: 0x5A4C, symBinAddr: 0x100007678, symSize: 0x24 }
  - { offsetInCU: 0xF02D, offset: 0xF02D, size: 0x8, addend: 0x0, symName: __ZNKSt3__18ios_base5rdbufB7v160006Ev, symObjAddr: 0x5A70, symBinAddr: 0x10000769C, symSize: 0x18 }
  - { offsetInCU: 0xF053, offset: 0xF053, size: 0x8, addend: 0x0, symName: __ZNSt3__111char_traitsIcE11eq_int_typeEii, symObjAddr: 0x5A88, symBinAddr: 0x1000076B4, symSize: 0x28 }
  - { offsetInCU: 0xF084, offset: 0xF084, size: 0x8, addend: 0x0, symName: __ZNSt3__111char_traitsIcE3eofEv, symObjAddr: 0x5AB0, symBinAddr: 0x1000076DC, symSize: 0x8 }
  - { offsetInCU: 0xF098, offset: 0xF098, size: 0x8, addend: 0x0, symName: __ZNKSt3__19basic_iosIcNS_11char_traitsIcEEE5widenB7v160006Ec, symObjAddr: 0x5AB8, symBinAddr: 0x1000076E4, symSize: 0x84 }
  - { offsetInCU: 0xF106, offset: 0xF106, size: 0x8, addend: 0x0, symName: __ZNKSt3__15ctypeIcE5widenB7v160006Ec, symObjAddr: 0x5B68, symBinAddr: 0x100007794, symSize: 0x38 }
  - { offsetInCU: 0xF13B, offset: 0xF13B, size: 0x8, addend: 0x0, symName: __ZNSt3__18ios_base8setstateB7v160006Ej, symObjAddr: 0x5BA0, symBinAddr: 0x1000077CC, symSize: 0x34 }
...
